target datalayout = "e-m:e-p270:32:32-p271:32:32-p272:64:64-i64:64-i128:128-f80:128-n8:16:32:64-S128"
target triple = "x86_64-pc-linux-gnu"

%struct.AVFormatContext = type { ptr, ptr, ptr, ptr, ptr, i32, i32, ptr, i32, ptr, i32, ptr, ptr, i64, i64, i64, i32, i32, i32, i64, i64, ptr, i32, i32, ptr, i32, i32, i32, i32, ptr, i64, i32, i32, %struct.AVIOInterruptCB, i32, i32, i32, i32, i64, i32, i32, i32, i32, i32, i32, i32, i32, i32, i32, i32, i32, i64, i32, i32, i32, i32, i32, ptr, ptr, ptr, ptr, i32, ptr, ptr, ptr, ptr, i32, ptr, ptr, i64, ptr, ptr, ptr, i64 }
%struct.AVIOInterruptCB = type { ptr, ptr }
%struct.AVStream = type { ptr, i32, i32, ptr, ptr, %struct.AVRational, i64, i64, i64, i32, i32, %struct.AVRational, ptr, %struct.AVRational, %struct.AVPacket, i32, %struct.AVRational, i32 }
%struct.AVPacket = type { ptr, i64, i64, ptr, i32, i32, i32, ptr, i32, i64, i64, ptr, ptr, %struct.AVRational }
%struct.AVRational = type { i32, i32 }
%struct.AVCodecParameters = type { i32, i32, i32, ptr, i32, ptr, i32, i32, i64, i32, i32, i32, i32, i32, i32, %struct.AVRational, %struct.AVRational, i32, i32, i32, i32, i32, i32, i32, %struct.AVChannelLayout, i32, i32, i32, i32, i32, i32 }
%struct.AVChannelLayout = type { i32, i32, %union.anon, ptr }
%union.anon = type { i64 }
%struct.MaxisXADemuxContext = type { i32, i32 }

; Function Attrs: alwaysinline nounwind willreturn memory(none) uwtable
define internal i32 @av_clip_c(i32 noundef %0, i32 noundef %1, i32 noundef %2) #3 {
  %4 = alloca i32, align 4
  %5 = alloca i32, align 4
  %6 = alloca i32, align 4
  %7 = alloca i32, align 4
  store i32 %0, ptr %5, align 4, !tbaa !15
  store i32 %1, ptr %6, align 4, !tbaa !15
  store i32 %2, ptr %7, align 4, !tbaa !15
  %8 = load i32, ptr %5, align 4, !tbaa !15
  %9 = load i32, ptr %6, align 4, !tbaa !15
  %10 = icmp slt i32 %8, %9
  br i1 %10, label %11, label %13

11:                                               ; preds = %3
  %12 = load i32, ptr %6, align 4, !tbaa !15
  store i32 %12, ptr %4, align 4
  br label %21

13:                                               ; preds = %3
  %14 = load i32, ptr %5, align 4, !tbaa !15
  %15 = load i32, ptr %7, align 4, !tbaa !15
  %16 = icmp sgt i32 %14, %15
  br i1 %16, label %17, label %19

17:                                               ; preds = %13
  %18 = load i32, ptr %7, align 4, !tbaa !15
  store i32 %18, ptr %4, align 4
  br label %21

19:                                               ; preds = %13
  %20 = load i32, ptr %5, align 4, !tbaa !15
  store i32 %20, ptr %4, align 4
  br label %21

21:                                               ; preds = %19, %17, %11
  %22 = load i32, ptr %4, align 4
  ret i32 %22
}

; Function Attrs: nounwind uwtable
define internal i32 @xa_read_header(ptr noundef %0) #0 {
  %2 = alloca i32, align 4
  %3 = alloca ptr, align 8
  %4 = alloca ptr, align 8
  %5 = alloca ptr, align 8
  %6 = alloca ptr, align 8
  %7 = alloca i32, align 4
  store ptr %0, ptr %3, align 8, !tbaa !16
  call void @llvm.lifetime.start.p0(i64 8, ptr %4) #4
  %8 = load ptr, ptr %3, align 8, !tbaa !16
  %9 = getelementptr inbounds nuw %struct.AVFormatContext, ptr %8, i32 0, i32 3
  %10 = load ptr, ptr %9, align 8, !tbaa !18
  store ptr %10, ptr %4, align 8, !tbaa !33
  call void @llvm.lifetime.start.p0(i64 8, ptr %5) #4
  %11 = load ptr, ptr %3, align 8, !tbaa !16
  %12 = getelementptr inbounds nuw %struct.AVFormatContext, ptr %11, i32 0, i32 4
  %13 = load ptr, ptr %12, align 8, !tbaa !35
  store ptr %13, ptr %5, align 8, !tbaa !36
  call void @llvm.lifetime.start.p0(i64 8, ptr %6) #4
  %14 = load ptr, ptr %3, align 8, !tbaa !16
  %15 = call ptr @avformat_new_stream(ptr noundef %14, ptr noundef null)
  store ptr %15, ptr %6, align 8, !tbaa !37
  %16 = load ptr, ptr %6, align 8, !tbaa !37
  %17 = icmp ne ptr %16, null
  br i1 %17, label %19, label %18

18:                                               ; preds = %1
  store i32 -12, ptr %2, align 4
  store i32 1, ptr %7, align 4
  br label %103

19:                                               ; preds = %1
  %20 = load ptr, ptr %6, align 8, !tbaa !37
  %21 = getelementptr inbounds nuw %struct.AVStream, ptr %20, i32 0, i32 3
  %22 = load ptr, ptr %21, align 8, !tbaa !39
  %23 = getelementptr inbounds nuw %struct.AVCodecParameters, ptr %22, i32 0, i32 0
  store i32 1, ptr %23, align 8, !tbaa !46
  %24 = load ptr, ptr %6, align 8, !tbaa !37
  %25 = getelementptr inbounds nuw %struct.AVStream, ptr %24, i32 0, i32 3
  %26 = load ptr, ptr %25, align 8, !tbaa !39
  %27 = getelementptr inbounds nuw %struct.AVCodecParameters, ptr %26, i32 0, i32 1
  store i32 69658, ptr %27, align 4, !tbaa !49
  %28 = load ptr, ptr %5, align 8, !tbaa !36
  %29 = call i64 @avio_skip(ptr noundef %28, i64 noundef 4)
  %30 = load ptr, ptr %5, align 8, !tbaa !36
  %31 = call i32 @avio_rl32(ptr noundef %30)
  %32 = load ptr, ptr %4, align 8, !tbaa !33
  %33 = getelementptr inbounds nuw %struct.MaxisXADemuxContext, ptr %32, i32 0, i32 0
  store i32 %31, ptr %33, align 4, !tbaa !50
  %34 = load ptr, ptr %5, align 8, !tbaa !36
  %35 = call i64 @avio_skip(ptr noundef %34, i64 noundef 2)
  %36 = load ptr, ptr %5, align 8, !tbaa !36
  %37 = call i32 @avio_rl16(ptr noundef %36)
  %38 = load ptr, ptr %6, align 8, !tbaa !37
  %39 = getelementptr inbounds nuw %struct.AVStream, ptr %38, i32 0, i32 3
  %40 = load ptr, ptr %39, align 8, !tbaa !39
  %41 = getelementptr inbounds nuw %struct.AVCodecParameters, ptr %40, i32 0, i32 24
  %42 = getelementptr inbounds nuw %struct.AVChannelLayout, ptr %41, i32 0, i32 1
  store i32 %37, ptr %42, align 4, !tbaa !52
  %43 = load ptr, ptr %5, align 8, !tbaa !36
  %44 = call i32 @avio_rl32(ptr noundef %43)
  %45 = load ptr, ptr %6, align 8, !tbaa !37
  %46 = getelementptr inbounds nuw %struct.AVStream, ptr %45, i32 0, i32 3
  %47 = load ptr, ptr %46, align 8, !tbaa !39
  %48 = getelementptr inbounds nuw %struct.AVCodecParameters, ptr %47, i32 0, i32 25
  store i32 %44, ptr %48, align 8, !tbaa !53
  %49 = load ptr, ptr %5, align 8, !tbaa !36
  %50 = call i64 @avio_skip(ptr noundef %49, i64 noundef 4)
  %51 = load ptr, ptr %5, align 8, !tbaa !36
  %52 = call i64 @avio_skip(ptr noundef %51, i64 noundef 2)
  %53 = load ptr, ptr %5, align 8, !tbaa !36
  %54 = call i64 @avio_skip(ptr noundef %53, i64 noundef 2)
  %55 = load ptr, ptr %6, align 8, !tbaa !37
  %56 = getelementptr inbounds nuw %struct.AVStream, ptr %55, i32 0, i32 3
  %57 = load ptr, ptr %56, align 8, !tbaa !39
  %58 = getelementptr inbounds nuw %struct.AVCodecParameters, ptr %57, i32 0, i32 24
  %59 = getelementptr inbounds nuw %struct.AVChannelLayout, ptr %58, i32 0, i32 1
  %60 = load i32, ptr %59, align 4, !tbaa !52
  %61 = icmp ne i32 %60, 0
  br i1 %61, label %62, label %69

62:                                               ; preds = %19
  %63 = load ptr, ptr %6, align 8, !tbaa !37
  %64 = getelementptr inbounds nuw %struct.AVStream, ptr %63, i32 0, i32 3
  %65 = load ptr, ptr %64, align 8, !tbaa !39
  %66 = getelementptr inbounds nuw %struct.AVCodecParameters, ptr %65, i32 0, i32 25
  %67 = load i32, ptr %66, align 8, !tbaa !53
  %68 = icmp ne i32 %67, 0
  br i1 %68, label %70, label %69

69:                                               ; preds = %62, %19
  store i32 -1094995529, ptr %2, align 4
  store i32 1, ptr %7, align 4
  br label %103

70:                                               ; preds = %62
  %71 = load ptr, ptr %6, align 8, !tbaa !37
  %72 = getelementptr inbounds nuw %struct.AVStream, ptr %71, i32 0, i32 3
  %73 = load ptr, ptr %72, align 8, !tbaa !39
  %74 = getelementptr inbounds nuw %struct.AVCodecParameters, ptr %73, i32 0, i32 24
  %75 = getelementptr inbounds nuw %struct.AVChannelLayout, ptr %74, i32 0, i32 1
  %76 = load i32, ptr %75, align 4, !tbaa !52
  %77 = sext i32 %76 to i64
  %78 = mul nsw i64 15, %77
  %79 = mul nsw i64 %78, 8
  %80 = load ptr, ptr %6, align 8, !tbaa !37
  %81 = getelementptr inbounds nuw %struct.AVStream, ptr %80, i32 0, i32 3
  %82 = load ptr, ptr %81, align 8, !tbaa !39
  %83 = getelementptr inbounds nuw %struct.AVCodecParameters, ptr %82, i32 0, i32 25
  %84 = load i32, ptr %83, align 8, !tbaa !53
  %85 = sext i32 %84 to i64
  %86 = mul nsw i64 %79, %85
  %87 = sdiv i64 %86, 28
  %88 = trunc i64 %87 to i32
  %89 = call i32 @av_clip_c(i32 noundef %88, i32 noundef 0, i32 noundef 2147483647) #5
  %90 = sext i32 %89 to i64
  %91 = load ptr, ptr %6, align 8, !tbaa !37
  %92 = getelementptr inbounds nuw %struct.AVStream, ptr %91, i32 0, i32 3
  %93 = load ptr, ptr %92, align 8, !tbaa !39
  %94 = getelementptr inbounds nuw %struct.AVCodecParameters, ptr %93, i32 0, i32 8
  store i64 %90, ptr %94, align 8, !tbaa !54
  %95 = load ptr, ptr %6, align 8, !tbaa !37
  %96 = load ptr, ptr %6, align 8, !tbaa !37
  %97 = getelementptr inbounds nuw %struct.AVStream, ptr %96, i32 0, i32 3
  %98 = load ptr, ptr %97, align 8, !tbaa !39
  %99 = getelementptr inbounds nuw %struct.AVCodecParameters, ptr %98, i32 0, i32 25
  %100 = load i32, ptr %99, align 8, !tbaa !53
  call void @avpriv_set_pts_info(ptr noundef %95, i32 noundef 64, i32 noundef 1, i32 noundef %100)
  %101 = load ptr, ptr %6, align 8, !tbaa !37
  %102 = getelementptr inbounds nuw %struct.AVStream, ptr %101, i32 0, i32 6
  store i64 0, ptr %102, align 8, !tbaa !55
  store i32 0, ptr %2, align 4
  store i32 1, ptr %7, align 4
  br label %103

103:                                              ; preds = %70, %69, %18
  call void @llvm.lifetime.end.p0(i64 8, ptr %6) #4
  call void @llvm.lifetime.end.p0(i64 8, ptr %5) #4
  call void @llvm.lifetime.end.p0(i64 8, ptr %4) #4
  %104 = load i32, ptr %2, align 4
  ret i32 %104
}