; Function Attrs: nounwind uwtable
define internal range(i32 -1094995529, 1) i32 @xa_read_header(ptr noundef %0) #1 {
  %2 = getelementptr inbounds nuw i8, ptr %0, i64 24
  %3 = load ptr, ptr %2, align 8, !tbaa !13
  %4 = getelementptr inbounds nuw i8, ptr %0, i64 32
  %5 = load ptr, ptr %4, align 8, !tbaa !28
  %6 = tail call ptr @avformat_new_stream(ptr noundef %0, ptr noundef null) #4
  %.not = icmp eq ptr %6, null
  br i1 %.not, label %39, label %7

7:                                                ; preds = %1
  %8 = getelementptr inbounds nuw i8, ptr %6, i64 16
  %9 = load ptr, ptr %8, align 8, !tbaa !29
  store i32 1, ptr %9, align 8, !tbaa !36
  %10 = getelementptr inbounds nuw i8, ptr %9, i64 4
  store i32 69658, ptr %10, align 4, !tbaa !39
  %11 = tail call i64 @avio_skip(ptr noundef %5, i64 noundef 4) #4
  %12 = tail call i32 @avio_rl32(ptr noundef %5) #4
  store i32 %12, ptr %3, align 4, !tbaa !40
  %13 = tail call i64 @avio_skip(ptr noundef %5, i64 noundef 2) #4
  %14 = tail call i32 @avio_rl16(ptr noundef %5) #4
  %15 = load ptr, ptr %8, align 8, !tbaa !29
  %16 = getelementptr inbounds nuw i8, ptr %15, i64 132
  store i32 %14, ptr %16, align 4, !tbaa !42
  %17 = tail call i32 @avio_rl32(ptr noundef %5) #4
  %18 = load ptr, ptr %8, align 8, !tbaa !29
  %19 = getelementptr inbounds nuw i8, ptr %18, i64 152
  store i32 %17, ptr %19, align 8, !tbaa !43
  %20 = tail call i64 @avio_skip(ptr noundef %5, i64 noundef 4) #4
  %21 = tail call i64 @avio_skip(ptr noundef %5, i64 noundef 2) #4
  %22 = tail call i64 @avio_skip(ptr noundef %5, i64 noundef 2) #4
  %23 = load ptr, ptr %8, align 8, !tbaa !29
  %24 = getelementptr inbounds nuw i8, ptr %23, i64 132
  %25 = load i32, ptr %24, align 4, !tbaa !42
  %.not28 = icmp eq i32 %25, 0
  br i1 %.not28, label %39, label %26

26:                                               ; preds = %7
  %27 = getelementptr inbounds nuw i8, ptr %23, i64 152
  %28 = load i32, ptr %27, align 8, !tbaa !43
  %.not29 = icmp eq i32 %28, 0
  br i1 %.not29, label %39, label %29

29:                                               ; preds = %26
  %30 = sext i32 %25 to i64
  %31 = mul nsw i64 %30, 120
  %32 = sext i32 %28 to i64
  %33 = mul nsw i64 %31, %32
  %34 = sdiv i64 %33, 28
  %35 = trunc i64 %34 to i32
  %.0.i = tail call i32 @llvm.smax.i32(i32 %35, i32 0)
  %36 = zext nneg i32 %.0.i to i64
  %37 = getelementptr inbounds nuw i8, ptr %23, i64 48
  store i64 %36, ptr %37, align 8, !tbaa !44
  tail call void @avpriv_set_pts_info(ptr noundef nonnull %6, i32 noundef 64, i32 noundef 1, i32 noundef %28) #4
  %38 = getelementptr inbounds nuw i8, ptr %6, i64 40
  store i64 0, ptr %38, align 8, !tbaa !45
  br label %39

39:                                               ; preds = %7, %26, %1, %29
  %.0 = phi i32 [ 0, %29 ], [ -12, %1 ], [ -1094995529, %26 ], [ -1094995529, %7 ]
  ret i32 %.0
}